target datalayout = "e-m:e-p270:32:32-p271:32:32-p272:64:64-i64:64-i128:128-f80:128-n8:16:32:64-S128"
target triple = "x86_64-pc-linux-gnu"

%"struct.std::_Rb_tree_header" = type { %"struct.std::_Rb_tree_node_base", i64 }
%"struct.std::_Rb_tree_node_base" = type { i32, ptr, ptr, ptr }
%"class.vcg::Matrix44" = type { %"struct.std::array" }
%"struct.std::array" = type { [16 x float] }
%class.QString = type { ptr }
%"class.vcg::Color4" = type { %"class.vcg::Point4" }
%"class.vcg::Point4" = type { [4 x i8] }
%class.GLArea = type <{ %class.QGLWidget, i32, [4 x i8], ptr, %"class.vcg::Trackball", %"class.vcg::Trackball", %class.GLAreaSetting, %class.QMap, %class.QList, i8, i8, [6 x i8], %class.QString, %class.QMap.33, i8, i8, i8, i8, i8, i8, i8, i8, %class.QString, %class.QString, i8, [3 x i8], %"class.vcg::Point2", [4 x i8], ptr, ptr, ptr, %class.QFont, ptr, ptr, ptr, %class.QMap.34, ptr, float, float, float, float, float, [4 x i8], %class.SnapshotSetting, i32, [4 x i8], %class.QMap.35, %class.QMap.35, float, float, %class.QImage, i8, [3 x i8], i32, i32, i32, i32, i32, i8, [3 x i8], i32, i32, i8, [3 x i8], float, i32, %class.QString, i32, [4 x i8] }>
%class.QGLWidget = type { %class.QWidget }
%class.QWidget = type { %class.QObject, %class.QPaintDevice, ptr }
%class.QObject = type { ptr, %class.QScopedPointer }
%class.QScopedPointer = type { ptr }
%class.QPaintDevice = type { ptr, i16, ptr }
%"class.vcg::Trackball" = type <{ %"class.vcg::Transform", %"class.vcg::View", i32, ptr, ptr, ptr, %"class.std::map.17", %"class.vcg::Similarityf", %"class.vcg::Similarityf", %"class.vcg::Similarityf", %"class.vcg::Point3", [4 x i8], %"class.std::vector.25", i8, [3 x i8], i32, i32, %"class.vcg::Quaternion", i8, i8, [2 x i8], %"class.std::__cxx11::list", i32, i8, [3 x i8] }>
%"class.vcg::Transform" = type { %"class.vcg::Similarityf", %"class.vcg::Point3", float }
%"class.vcg::View" = type <{ %"class.vcg::Matrix44", %"class.vcg::Matrix44", %"class.vcg::Matrix44", %"class.vcg::Matrix44", [4 x i32], i8, [3 x i8] }>
%"class.std::map.17" = type { %"class.std::_Rb_tree.18" }
%"class.std::_Rb_tree.18" = type { %"struct.std::_Rb_tree<int, std::pair<const int, vcg::TrackMode *>, std::_Select1st<std::pair<const int, vcg::TrackMode *>>, std::less<int>>::_Rb_tree_impl" }
%"struct.std::_Rb_tree<int, std::pair<const int, vcg::TrackMode *>, std::_Select1st<std::pair<const int, vcg::TrackMode *>>, std::less<int>>::_Rb_tree_impl" = type { %"struct.std::_Rb_tree_key_compare.22", %"struct.std::_Rb_tree_header" }
%"struct.std::_Rb_tree_key_compare.22" = type { %"struct.std::less.23" }
%"struct.std::less.23" = type { i8 }
%"class.vcg::Similarityf" = type { %"class.vcg::Similarity" }
%"class.vcg::Similarity" = type { %"class.vcg::Quaternion", %"class.vcg::Point3", float }
%"class.vcg::Point3" = type { [3 x float] }
%"class.std::vector.25" = type { %"struct.std::_Vector_base.26" }
%"struct.std::_Vector_base.26" = type { %"struct.std::_Vector_base<vcg::Point3<float>, std::allocator<vcg::Point3<float>>>::_Vector_impl" }
%"struct.std::_Vector_base<vcg::Point3<float>, std::allocator<vcg::Point3<float>>>::_Vector_impl" = type { %"struct.std::_Vector_base<vcg::Point3<float>, std::allocator<vcg::Point3<float>>>::_Vector_impl_data" }
%"struct.std::_Vector_base<vcg::Point3<float>, std::allocator<vcg::Point3<float>>>::_Vector_impl_data" = type { ptr, ptr, ptr }
%"class.vcg::Quaternion" = type { %"class.vcg::Point4.16" }
%"class.vcg::Point4.16" = type { [4 x float] }
%"class.std::__cxx11::list" = type { %"class.std::__cxx11::_List_base" }
%"class.std::__cxx11::_List_base" = type { %"struct.std::__cxx11::_List_base<vcg::Transform, std::allocator<vcg::Transform>>::_List_impl" }
%"struct.std::__cxx11::_List_base<vcg::Transform, std::allocator<vcg::Transform>>::_List_impl" = type { %"struct.std::__detail::_List_node_header" }
%"struct.std::__detail::_List_node_header" = type { %"struct.std::__detail::_List_node_base", i64 }
%"struct.std::__detail::_List_node_base" = type { ptr, ptr }
%class.GLAreaSetting = type { %"class.vcg::Color4", %"class.vcg::Color4", %"class.vcg::Color4", %"class.vcg::Color4", %"class.vcg::Color4", %"class.vcg::Color4", %"class.vcg::Color4", %"class.vcg::Color4", %"class.vcg::Color4", i32, i32, i32, i8, i8, float, i8, i8, i32, ptr }
%class.QMap = type { ptr }
%class.QList = type { %union.anon }
%union.anon = type { %struct.QListData }
%struct.QListData = type { ptr }
%class.QMap.33 = type { ptr }
%"class.vcg::Point2" = type { [2 x i32] }
%class.QFont = type <{ %class.QExplicitlySharedDataPointer, i32, [4 x i8] }>
%class.QExplicitlySharedDataPointer = type { ptr }
%class.QMap.34 = type { ptr }
%class.SnapshotSetting = type { %class.QString, %class.QString, i32, i32, i32, i8, i8, i8, i8 }
%class.QMap.35 = type { ptr }
%class.QImage = type { %class.QPaintDevice, ptr }
%struct.MLPerViewGLOptions = type { %"struct.vcg::RenderingModalityGLOptions.base", i8, i8, i8, i8, i8, i8, i8, i8, i8, i8, i8, i8, i8, i8, %"class.vcg::Color4", %"class.vcg::Color4", %"class.vcg::Color4", i8, %"class.vcg::Color4", %"class.vcg::Color4", i8, i8, i8, [6 x i8] }
%"struct.vcg::RenderingModalityGLOptions.base" = type <{ ptr, i8, i8, i8, i8, i8, %"class.vcg::Color4", %"class.vcg::Color4", %"class.vcg::Color4", %"class.vcg::Color4", i8, i8, i8, i8, i8, i8, i8, i8, [3 x i8], float, i8, i8, [2 x i8], float }>
%"class.vcg::Color4.289" = type { %"class.vcg::Point4.16" }

; Function Attrs: mustprogress nounwind uwtable
define linkonce_odr void @_ZN3vcg6Point4IfEC2Effff(ptr noundef nonnull align 4 dereferenceable(16) %0, float noundef %1, float noundef %2, float noundef %3, float noundef %4) unnamed_addr #4 comdat align 2 {
  %6 = alloca ptr, align 8
  %7 = alloca float, align 4
  %8 = alloca float, align 4
  %9 = alloca float, align 4
  %10 = alloca float, align 4
  store ptr %0, ptr %6, align 8
  store float %1, ptr %7, align 4
  store float %2, ptr %8, align 4
  store float %3, ptr %9, align 4
  store float %4, ptr %10, align 4
  %11 = load ptr, ptr %6, align 8
  %12 = load float, ptr %7, align 4
  %13 = getelementptr inbounds %"class.vcg::Point4.16", ptr %11, i32 0, i32 0
  %14 = getelementptr inbounds [4 x float], ptr %13, i64 0, i64 0
  store float %12, ptr %14, align 4
  %15 = load float, ptr %8, align 4
  %16 = getelementptr inbounds %"class.vcg::Point4.16", ptr %11, i32 0, i32 0
  %17 = getelementptr inbounds [4 x float], ptr %16, i64 0, i64 1
  store float %15, ptr %17, align 4
  %18 = load float, ptr %9, align 4
  %19 = getelementptr inbounds %"class.vcg::Point4.16", ptr %11, i32 0, i32 0
  %20 = getelementptr inbounds [4 x float], ptr %19, i64 0, i64 2
  store float %18, ptr %20, align 4
  %21 = load float, ptr %10, align 4
  %22 = getelementptr inbounds %"class.vcg::Point4.16", ptr %11, i32 0, i32 0
  %23 = getelementptr inbounds [4 x float], ptr %22, i64 0, i64 3
  store float %21, ptr %23, align 4
  ret void
}

; Function Attrs: mustprogress uwtable
define linkonce_odr void @_ZN3vcg6Color4IfEC2Effff(ptr noundef nonnull align 4 dereferenceable(16) %0, float noundef %1, float noundef %2, float noundef %3, float noundef %4) unnamed_addr #5 comdat align 2 {
  %6 = alloca ptr, align 8
  %7 = alloca float, align 4
  %8 = alloca float, align 4
  %9 = alloca float, align 4
  %10 = alloca float, align 4
  store ptr %0, ptr %6, align 8
  store float %1, ptr %7, align 4
  store float %2, ptr %8, align 4
  store float %3, ptr %9, align 4
  store float %4, ptr %10, align 4
  %11 = load ptr, ptr %6, align 8
  %12 = load float, ptr %7, align 4
  %13 = load float, ptr %8, align 4
  %14 = load float, ptr %9, align 4
  %15 = load float, ptr %10, align 4
  call void @_ZN3vcg6Point4IfEC2Effff(ptr noundef nonnull align 4 dereferenceable(16) %11, float noundef %12, float noundef %13, float noundef %14, float noundef %15)
  ret void
}

; Function Attrs: mustprogress nounwind uwtable
define linkonce_odr noundef nonnull align 1 dereferenceable(1) ptr @_ZNK3vcg6Point4IhEixEi(ptr noundef nonnull align 1 dereferenceable(4) %0, i32 noundef %1) #4 comdat align 2 {
  %3 = alloca ptr, align 8
  %4 = alloca i32, align 4
  store ptr %0, ptr %3, align 8
  store i32 %1, ptr %4, align 4
  %5 = load ptr, ptr %3, align 8
  %6 = getelementptr inbounds %"class.vcg::Point4", ptr %5, i32 0, i32 0
  %7 = load i32, ptr %4, align 4
  %8 = sext i32 %7 to i64
  %9 = getelementptr inbounds [4 x i8], ptr %6, i64 0, i64 %8
  ret ptr %9
}

; Function Attrs: mustprogress nounwind uwtable
define linkonce_odr noundef ptr @_ZN3vcg6Point4IfE1VEv(ptr noundef nonnull align 4 dereferenceable(16) %0) #4 comdat align 2 {
  %2 = alloca ptr, align 8
  store ptr %0, ptr %2, align 8
  %3 = load ptr, ptr %2, align 8
  %4 = getelementptr inbounds %"class.vcg::Point4.16", ptr %3, i32 0, i32 0
  %5 = getelementptr inbounds [4 x float], ptr %4, i64 0, i64 0
  ret ptr %5
}

; Function Attrs: mustprogress uwtable
define linkonce_odr { <2 x float>, <2 x float> } @_ZN3vcg6Color4IfE9ConstructIhEES1_RKNS0_IT_EE(ptr noundef nonnull align 1 dereferenceable(4) %0) #5 comdat align 2 {
  %2 = alloca %"class.vcg::Color4.289", align 4
  %3 = alloca ptr, align 8
  store ptr %0, ptr %3, align 8
  %4 = load ptr, ptr %3, align 8
  %5 = call noundef nonnull align 1 dereferenceable(1) ptr @_ZNK3vcg6Point4IhEixEi(ptr noundef nonnull align 1 dereferenceable(4) %4, i32 noundef 0)
  %6 = load i8, ptr %5, align 1
  %7 = uitofp i8 %6 to float
  %8 = fdiv float %7, 2.550000e+02
  %9 = load ptr, ptr %3, align 8
  %10 = call noundef nonnull align 1 dereferenceable(1) ptr @_ZNK3vcg6Point4IhEixEi(ptr noundef nonnull align 1 dereferenceable(4) %9, i32 noundef 1)
  %11 = load i8, ptr %10, align 1
  %12 = uitofp i8 %11 to float
  %13 = fdiv float %12, 2.550000e+02
  %14 = load ptr, ptr %3, align 8
  %15 = call noundef nonnull align 1 dereferenceable(1) ptr @_ZNK3vcg6Point4IhEixEi(ptr noundef nonnull align 1 dereferenceable(4) %14, i32 noundef 2)
  %16 = load i8, ptr %15, align 1
  %17 = uitofp i8 %16 to float
  %18 = fdiv float %17, 2.550000e+02
  %19 = load ptr, ptr %3, align 8
  %20 = call noundef nonnull align 1 dereferenceable(1) ptr @_ZNK3vcg6Point4IhEixEi(ptr noundef nonnull align 1 dereferenceable(4) %19, i32 noundef 3)
  %21 = load i8, ptr %20, align 1
  %22 = uitofp i8 %21 to float
  %23 = fdiv float %22, 2.550000e+02
  call void @_ZN3vcg6Color4IfEC2Effff(ptr noundef nonnull align 4 dereferenceable(16) %2, float noundef %8, float noundef %13, float noundef %18, float noundef %23)
  %24 = getelementptr inbounds %"class.vcg::Color4.289", ptr %2, i32 0, i32 0
  %25 = getelementptr inbounds %"class.vcg::Point4.16", ptr %24, i32 0, i32 0
  %26 = load { <2 x float>, <2 x float> }, ptr %25, align 4
  ret { <2 x float>, <2 x float> } %26
}

; Function Attrs: mustprogress uwtable
define void @_ZN6GLArea17setLightingColorsERK18MLPerViewGLOptions(ptr noundef nonnull align 8 dereferenceable(1676) %0, ptr noundef nonnull align 8 dereferenceable(90) %1) #14 align 2 {
  %3 = alloca ptr, align 8
  %4 = alloca ptr, align 8
  %5 = alloca %"class.vcg::Color4.289", align 4
  %6 = alloca %"class.vcg::Color4.289", align 4
  %7 = alloca %"class.vcg::Color4.289", align 4
  %8 = alloca %"class.vcg::Color4.289", align 4
  %9 = alloca %"class.vcg::Color4.289", align 4
  %10 = alloca %"class.vcg::Color4.289", align 4
  %11 = alloca %"class.vcg::Color4.289", align 4
  %12 = alloca %"class.vcg::Color4.289", align 4
  store ptr %0, ptr %3, align 8
  store ptr %1, ptr %4, align 8
  %13 = load ptr, ptr %3, align 8
  call void @_ZN9QGLWidget11makeCurrentEv(ptr noundef nonnull align 8 dereferenceable(48) %13)
  %14 = load ptr, ptr %4, align 8
  %15 = getelementptr inbounds %struct.MLPerViewGLOptions, ptr %14, i32 0, i32 13
  %16 = load i8, ptr %15, align 8
  %17 = trunc i8 %16 to i1
  br i1 %17, label %23, label %18

18:                                               ; preds = %2
  %19 = load ptr, ptr %4, align 8
  %20 = getelementptr inbounds %struct.MLPerViewGLOptions, ptr %19, i32 0, i32 14
  %21 = load i8, ptr %20, align 1
  %22 = trunc i8 %21 to i1
  br i1 %22, label %23, label %24

23:                                               ; preds = %18, %2
  call void @glEnable(i32 noundef 16385)
  br label %25

24:                                               ; preds = %18
  call void @glDisable(i32 noundef 16385)
  br label %25

25:                                               ; preds = %24, %23
  %26 = getelementptr inbounds %class.GLArea, ptr %13, i32 0, i32 6
  %27 = getelementptr inbounds %class.GLAreaSetting, ptr %26, i32 0, i32 0
  %28 = call { <2 x float>, <2 x float> } @_ZN3vcg6Color4IfE9ConstructIhEES1_RKNS0_IT_EE(ptr noundef nonnull align 1 dereferenceable(4) %27)
  %29 = getelementptr inbounds %"class.vcg::Color4.289", ptr %5, i32 0, i32 0
  %30 = getelementptr inbounds %"class.vcg::Point4.16", ptr %29, i32 0, i32 0
  %31 = getelementptr inbounds { <2 x float>, <2 x float> }, ptr %30, i32 0, i32 0
  %32 = extractvalue { <2 x float>, <2 x float> } %28, 0
  store <2 x float> %32, ptr %31, align 4
  %33 = getelementptr inbounds { <2 x float>, <2 x float> }, ptr %30, i32 0, i32 1
  %34 = extractvalue { <2 x float>, <2 x float> } %28, 1
  store <2 x float> %34, ptr %33, align 4
  %35 = call noundef ptr @_ZN3vcg6Point4IfE1VEv(ptr noundef nonnull align 4 dereferenceable(16) %5)
  call void @glLightfv(i32 noundef 16384, i32 noundef 4608, ptr noundef %35)
  %36 = getelementptr inbounds %class.GLArea, ptr %13, i32 0, i32 6
  %37 = getelementptr inbounds %class.GLAreaSetting, ptr %36, i32 0, i32 1
  %38 = call { <2 x float>, <2 x float> } @_ZN3vcg6Color4IfE9ConstructIhEES1_RKNS0_IT_EE(ptr noundef nonnull align 1 dereferenceable(4) %37)
  %39 = getelementptr inbounds %"class.vcg::Color4.289", ptr %6, i32 0, i32 0
  %40 = getelementptr inbounds %"class.vcg::Point4.16", ptr %39, i32 0, i32 0
  %41 = getelementptr inbounds { <2 x float>, <2 x float> }, ptr %40, i32 0, i32 0
  %42 = extractvalue { <2 x float>, <2 x float> } %38, 0
  store <2 x float> %42, ptr %41, align 4
  %43 = getelementptr inbounds { <2 x float>, <2 x float> }, ptr %40, i32 0, i32 1
  %44 = extractvalue { <2 x float>, <2 x float> } %38, 1
  store <2 x float> %44, ptr %43, align 4
  %45 = call noundef ptr @_ZN3vcg6Point4IfE1VEv(ptr noundef nonnull align 4 dereferenceable(16) %6)
  call void @glLightfv(i32 noundef 16384, i32 noundef 4609, ptr noundef %45)
  %46 = getelementptr inbounds %class.GLArea, ptr %13, i32 0, i32 6
  %47 = getelementptr inbounds %class.GLAreaSetting, ptr %46, i32 0, i32 2
  %48 = call { <2 x float>, <2 x float> } @_ZN3vcg6Color4IfE9ConstructIhEES1_RKNS0_IT_EE(ptr noundef nonnull align 1 dereferenceable(4) %47)
  %49 = getelementptr inbounds %"class.vcg::Color4.289", ptr %7, i32 0, i32 0
  %50 = getelementptr inbounds %"class.vcg::Point4.16", ptr %49, i32 0, i32 0
  %51 = getelementptr inbounds { <2 x float>, <2 x float> }, ptr %50, i32 0, i32 0
  %52 = extractvalue { <2 x float>, <2 x float> } %48, 0
  store <2 x float> %52, ptr %51, align 4
  %53 = getelementptr inbounds { <2 x float>, <2 x float> }, ptr %50, i32 0, i32 1
  %54 = extractvalue { <2 x float>, <2 x float> } %48, 1
  store <2 x float> %54, ptr %53, align 4
  %55 = call noundef ptr @_ZN3vcg6Point4IfE1VEv(ptr noundef nonnull align 4 dereferenceable(16) %7)
  call void @glLightfv(i32 noundef 16384, i32 noundef 4610, ptr noundef %55)
  %56 = getelementptr inbounds %class.GLArea, ptr %13, i32 0, i32 6
  %57 = getelementptr inbounds %class.GLAreaSetting, ptr %56, i32 0, i32 0
  %58 = call { <2 x float>, <2 x float> } @_ZN3vcg6Color4IfE9ConstructIhEES1_RKNS0_IT_EE(ptr noundef nonnull align 1 dereferenceable(4) %57)
  %59 = getelementptr inbounds %"class.vcg::Color4.289", ptr %8, i32 0, i32 0
  %60 = getelementptr inbounds %"class.vcg::Point4.16", ptr %59, i32 0, i32 0
  %61 = getelementptr inbounds { <2 x float>, <2 x float> }, ptr %60, i32 0, i32 0
  %62 = extractvalue { <2 x float>, <2 x float> } %58, 0
  store <2 x float> %62, ptr %61, align 4
  %63 = getelementptr inbounds { <2 x float>, <2 x float> }, ptr %60, i32 0, i32 1
  %64 = extractvalue { <2 x float>, <2 x float> } %58, 1
  store <2 x float> %64, ptr %63, align 4
  %65 = call noundef ptr @_ZN3vcg6Point4IfE1VEv(ptr noundef nonnull align 4 dereferenceable(16) %8)
  call void @glLightfv(i32 noundef 16385, i32 noundef 4608, ptr noundef %65)
  %66 = getelementptr inbounds %class.GLArea, ptr %13, i32 0, i32 6
  %67 = getelementptr inbounds %class.GLAreaSetting, ptr %66, i32 0, i32 1
  %68 = call { <2 x float>, <2 x float> } @_ZN3vcg6Color4IfE9ConstructIhEES1_RKNS0_IT_EE(ptr noundef nonnull align 1 dereferenceable(4) %67)
  %69 = getelementptr inbounds %"class.vcg::Color4.289", ptr %9, i32 0, i32 0
  %70 = getelementptr inbounds %"class.vcg::Point4.16", ptr %69, i32 0, i32 0
  %71 = getelementptr inbounds { <2 x float>, <2 x float> }, ptr %70, i32 0, i32 0
  %72 = extractvalue { <2 x float>, <2 x float> } %68, 0
  store <2 x float> %72, ptr %71, align 4
  %73 = getelementptr inbounds { <2 x float>, <2 x float> }, ptr %70, i32 0, i32 1
  %74 = extractvalue { <2 x float>, <2 x float> } %68, 1
  store <2 x float> %74, ptr %73, align 4
  %75 = call noundef ptr @_ZN3vcg6Point4IfE1VEv(ptr noundef nonnull align 4 dereferenceable(16) %9)
  call void @glLightfv(i32 noundef 16385, i32 noundef 4609, ptr noundef %75)
  %76 = getelementptr inbounds %class.GLArea, ptr %13, i32 0, i32 6
  %77 = getelementptr inbounds %class.GLAreaSetting, ptr %76, i32 0, i32 2
  %78 = call { <2 x float>, <2 x float> } @_ZN3vcg6Color4IfE9ConstructIhEES1_RKNS0_IT_EE(ptr noundef nonnull align 1 dereferenceable(4) %77)
  %79 = getelementptr inbounds %"class.vcg::Color4.289", ptr %10, i32 0, i32 0
  %80 = getelementptr inbounds %"class.vcg::Point4.16", ptr %79, i32 0, i32 0
  %81 = getelementptr inbounds { <2 x float>, <2 x float> }, ptr %80, i32 0, i32 0
  %82 = extractvalue { <2 x float>, <2 x float> } %78, 0
  store <2 x float> %82, ptr %81, align 4
  %83 = getelementptr inbounds { <2 x float>, <2 x float> }, ptr %80, i32 0, i32 1
  %84 = extractvalue { <2 x float>, <2 x float> } %78, 1
  store <2 x float> %84, ptr %83, align 4
  %85 = call noundef ptr @_ZN3vcg6Point4IfE1VEv(ptr noundef nonnull align 4 dereferenceable(16) %10)
  call void @glLightfv(i32 noundef 16385, i32 noundef 4610, ptr noundef %85)
  %86 = load ptr, ptr %4, align 8
  %87 = getelementptr inbounds %struct.MLPerViewGLOptions, ptr %86, i32 0, i32 14
  %88 = load i8, ptr %87, align 1
  %89 = trunc i8 %88 to i1
  br i1 %89, label %90, label %111

90:                                               ; preds = %25
  %91 = getelementptr inbounds %class.GLArea, ptr %13, i32 0, i32 6
  %92 = getelementptr inbounds %class.GLAreaSetting, ptr %91, i32 0, i32 4
  %93 = call { <2 x float>, <2 x float> } @_ZN3vcg6Color4IfE9ConstructIhEES1_RKNS0_IT_EE(ptr noundef nonnull align 1 dereferenceable(4) %92)
  %94 = getelementptr inbounds %"class.vcg::Color4.289", ptr %11, i32 0, i32 0
  %95 = getelementptr inbounds %"class.vcg::Point4.16", ptr %94, i32 0, i32 0
  %96 = getelementptr inbounds { <2 x float>, <2 x float> }, ptr %95, i32 0, i32 0
  %97 = extractvalue { <2 x float>, <2 x float> } %93, 0
  store <2 x float> %97, ptr %96, align 4
  %98 = getelementptr inbounds { <2 x float>, <2 x float> }, ptr %95, i32 0, i32 1
  %99 = extractvalue { <2 x float>, <2 x float> } %93, 1
  store <2 x float> %99, ptr %98, align 4
  %100 = call noundef ptr @_ZN3vcg6Point4IfE1VEv(ptr noundef nonnull align 4 dereferenceable(16) %11)
  call void @glLightfv(i32 noundef 16384, i32 noundef 4609, ptr noundef %100)
  %101 = getelementptr inbounds %class.GLArea, ptr %13, i32 0, i32 6
  %102 = getelementptr inbounds %class.GLAreaSetting, ptr %101, i32 0, i32 3
  %103 = call { <2 x float>, <2 x float> } @_ZN3vcg6Color4IfE9ConstructIhEES1_RKNS0_IT_EE(ptr noundef nonnull align 1 dereferenceable(4) %102)
  %104 = getelementptr inbounds %"class.vcg::Color4.289", ptr %12, i32 0, i32 0
  %105 = getelementptr inbounds %"class.vcg::Point4.16", ptr %104, i32 0, i32 0
  %106 = getelementptr inbounds { <2 x float>, <2 x float> }, ptr %105, i32 0, i32 0
  %107 = extractvalue { <2 x float>, <2 x float> } %103, 0
  store <2 x float> %107, ptr %106, align 4
  %108 = getelementptr inbounds { <2 x float>, <2 x float> }, ptr %105, i32 0, i32 1
  %109 = extractvalue { <2 x float>, <2 x float> } %103, 1
  store <2 x float> %109, ptr %108, align 4
  %110 = call noundef ptr @_ZN3vcg6Point4IfE1VEv(ptr noundef nonnull align 4 dereferenceable(16) %12)
  call void @glLightfv(i32 noundef 16385, i32 noundef 4609, ptr noundef %110)
  br label %111

111:                                              ; preds = %90, %25
  ret void
}