; Function Attrs: mustprogress uwtable
define void @_ZN6GLArea17setLightingColorsERK18MLPerViewGLOptions(ptr noundef nonnull align 8 dereferenceable(1676) %0, ptr nocapture noundef nonnull readonly align 8 dereferenceable(90) %1) local_unnamed_addr #14 align 2 {
  %3 = alloca %"class.vcg::Color4.289", align 8
  %4 = alloca %"class.vcg::Color4.289", align 8
  %5 = alloca %"class.vcg::Color4.289", align 8
  %6 = alloca %"class.vcg::Color4.289", align 8
  %7 = alloca %"class.vcg::Color4.289", align 8
  %8 = alloca %"class.vcg::Color4.289", align 8
  %9 = alloca %"class.vcg::Color4.289", align 8
  %10 = alloca %"class.vcg::Color4.289", align 8
  tail call void @_ZN9QGLWidget11makeCurrentEv(ptr noundef nonnull align 8 dereferenceable(48) %0)
  %11 = getelementptr inbounds i8, ptr %1, i64 64
  %12 = load i8, ptr %11, align 8
  %13 = and i8 %12, 1
  %.not = icmp eq i8 %13, 0
  br i1 %.not, label %14, label %18

14:                                               ; preds = %2
  %15 = getelementptr inbounds i8, ptr %1, i64 65
  %16 = load i8, ptr %15, align 1
  %17 = and i8 %16, 1
  %.not4 = icmp eq i8 %17, 0
  br i1 %.not4, label %19, label %18

18:                                               ; preds = %14, %2
  tail call void @glEnable(i32 noundef 16385)
  br label %20

19:                                               ; preds = %14
  tail call void @glDisable(i32 noundef 16385)
  br label %20

20:                                               ; preds = %19, %18
  %21 = getelementptr inbounds i8, ptr %0, i64 1264
  %22 = load <2 x i8>, ptr %21, align 8
  %23 = uitofp <2 x i8> %22 to <2 x float>
  %24 = fdiv <2 x float> %23, <float 2.550000e+02, float 2.550000e+02>
  %25 = getelementptr inbounds i8, ptr %0, i64 1266
  %26 = load <2 x i8>, ptr %25, align 2
  %27 = uitofp <2 x i8> %26 to <2 x float>
  %28 = fdiv <2 x float> %27, <float 2.550000e+02, float 2.550000e+02>
  store <2 x float> %24, ptr %3, align 8
  %29 = getelementptr inbounds i8, ptr %3, i64 8
  store <2 x float> %28, ptr %29, align 8
  call void @glLightfv(i32 noundef 16384, i32 noundef 4608, ptr noundef nonnull %3)
  %30 = getelementptr inbounds i8, ptr %0, i64 1268
  %31 = load <2 x i8>, ptr %30, align 4
  %32 = uitofp <2 x i8> %31 to <2 x float>
  %33 = fdiv <2 x float> %32, <float 2.550000e+02, float 2.550000e+02>
  %34 = getelementptr inbounds i8, ptr %0, i64 1270
  %35 = load <2 x i8>, ptr %34, align 2
  %36 = uitofp <2 x i8> %35 to <2 x float>
  %37 = fdiv <2 x float> %36, <float 2.550000e+02, float 2.550000e+02>
  store <2 x float> %33, ptr %4, align 8
  %38 = getelementptr inbounds i8, ptr %4, i64 8
  store <2 x float> %37, ptr %38, align 8
  call void @glLightfv(i32 noundef 16384, i32 noundef 4609, ptr noundef nonnull %4)
  %39 = getelementptr inbounds i8, ptr %0, i64 1272
  %40 = load <2 x i8>, ptr %39, align 8
  %41 = uitofp <2 x i8> %40 to <2 x float>
  %42 = fdiv <2 x float> %41, <float 2.550000e+02, float 2.550000e+02>
  %43 = getelementptr inbounds i8, ptr %0, i64 1274
  %44 = load <2 x i8>, ptr %43, align 2
  %45 = uitofp <2 x i8> %44 to <2 x float>
  %46 = fdiv <2 x float> %45, <float 2.550000e+02, float 2.550000e+02>
  store <2 x float> %42, ptr %5, align 8
  %47 = getelementptr inbounds i8, ptr %5, i64 8
  store <2 x float> %46, ptr %47, align 8
  call void @glLightfv(i32 noundef 16384, i32 noundef 4610, ptr noundef nonnull %5)
  %48 = load <2 x i8>, ptr %21, align 8
  %49 = uitofp <2 x i8> %48 to <2 x float>
  %50 = fdiv <2 x float> %49, <float 2.550000e+02, float 2.550000e+02>
  %51 = load <2 x i8>, ptr %25, align 2
  %52 = uitofp <2 x i8> %51 to <2 x float>
  %53 = fdiv <2 x float> %52, <float 2.550000e+02, float 2.550000e+02>
  store <2 x float> %50, ptr %6, align 8
  %54 = getelementptr inbounds i8, ptr %6, i64 8
  store <2 x float> %53, ptr %54, align 8
  call void @glLightfv(i32 noundef 16385, i32 noundef 4608, ptr noundef nonnull %6)
  %55 = load <2 x i8>, ptr %30, align 4
  %56 = uitofp <2 x i8> %55 to <2 x float>
  %57 = fdiv <2 x float> %56, <float 2.550000e+02, float 2.550000e+02>
  %58 = load <2 x i8>, ptr %34, align 2
  %59 = uitofp <2 x i8> %58 to <2 x float>
  %60 = fdiv <2 x float> %59, <float 2.550000e+02, float 2.550000e+02>
  store <2 x float> %57, ptr %7, align 8
  %61 = getelementptr inbounds i8, ptr %7, i64 8
  store <2 x float> %60, ptr %61, align 8
  call void @glLightfv(i32 noundef 16385, i32 noundef 4609, ptr noundef nonnull %7)
  %62 = load <2 x i8>, ptr %39, align 8
  %63 = uitofp <2 x i8> %62 to <2 x float>
  %64 = fdiv <2 x float> %63, <float 2.550000e+02, float 2.550000e+02>
  %65 = load <2 x i8>, ptr %43, align 2
  %66 = uitofp <2 x i8> %65 to <2 x float>
  %67 = fdiv <2 x float> %66, <float 2.550000e+02, float 2.550000e+02>
  store <2 x float> %64, ptr %8, align 8
  %68 = getelementptr inbounds i8, ptr %8, i64 8
  store <2 x float> %67, ptr %68, align 8
  call void @glLightfv(i32 noundef 16385, i32 noundef 4610, ptr noundef nonnull %8)
  %69 = getelementptr inbounds i8, ptr %1, i64 65
  %70 = load i8, ptr %69, align 1
  %71 = and i8 %70, 1
  %.not5 = icmp eq i8 %71, 0
  br i1 %.not5, label %91, label %72

72:                                               ; preds = %20
  %73 = getelementptr inbounds i8, ptr %0, i64 1280
  %74 = load <2 x i8>, ptr %73, align 8
  %75 = uitofp <2 x i8> %74 to <2 x float>
  %76 = fdiv <2 x float> %75, <float 2.550000e+02, float 2.550000e+02>
  %77 = getelementptr inbounds i8, ptr %0, i64 1282
  %78 = load <2 x i8>, ptr %77, align 2
  %79 = uitofp <2 x i8> %78 to <2 x float>
  %80 = fdiv <2 x float> %79, <float 2.550000e+02, float 2.550000e+02>
  store <2 x float> %76, ptr %9, align 8
  %81 = getelementptr inbounds i8, ptr %9, i64 8
  store <2 x float> %80, ptr %81, align 8
  call void @glLightfv(i32 noundef 16384, i32 noundef 4609, ptr noundef nonnull %9)
  %82 = getelementptr inbounds i8, ptr %0, i64 1276
  %83 = load <2 x i8>, ptr %82, align 4
  %84 = uitofp <2 x i8> %83 to <2 x float>
  %85 = fdiv <2 x float> %84, <float 2.550000e+02, float 2.550000e+02>
  %86 = getelementptr inbounds i8, ptr %0, i64 1278
  %87 = load <2 x i8>, ptr %86, align 2
  %88 = uitofp <2 x i8> %87 to <2 x float>
  %89 = fdiv <2 x float> %88, <float 2.550000e+02, float 2.550000e+02>
  store <2 x float> %85, ptr %10, align 8
  %90 = getelementptr inbounds i8, ptr %10, i64 8
  store <2 x float> %89, ptr %90, align 8
  call void @glLightfv(i32 noundef 16385, i32 noundef 4609, ptr noundef nonnull %10)
  br label %91

91:                                               ; preds = %72, %20
  ret void
}